; Function Attrs: nounwind uwtable
define internal ptr @richcmp_eq(ptr noundef %0, ptr noundef readonly captures(none) %1, ptr noundef readonly captures(none) %2) #1 {
  %4 = getelementptr i8, ptr %1, i64 8
  %.val8.i.i = load ptr, ptr %4, align 8, !tbaa !116
  %.not.i.i = icmp eq ptr %.val8.i.i, @PyTuple_Type
  br i1 %.not.i.i, label %7, label %5

5:                                                ; preds = %3
  %6 = load ptr, ptr @PyExc_SystemError, align 8, !tbaa !105
  tail call void @PyErr_SetString(ptr noundef %6, ptr noundef nonnull @.str.369) #24
  br label %wrap_richcmpfunc.exit

7:                                                ; preds = %3
  %8 = getelementptr i8, ptr %1, i64 16
  %.val7.i.i = load i64, ptr %8, align 8, !tbaa !132
  %9 = icmp eq i64 %.val7.i.i, 1
  br i1 %9, label %check_num_args.exit.i, label %10

10:                                               ; preds = %7
  %11 = load ptr, ptr @PyExc_TypeError, align 8, !tbaa !105
  %12 = tail call ptr (ptr, ptr, ...) @PyErr_Format(ptr noundef %11, ptr noundef nonnull @.str.370, i32 noundef 1, ptr noundef nonnull @.str.119, i64 noundef %.val7.i.i) #24
  br label %wrap_richcmpfunc.exit

check_num_args.exit.i:                            ; preds = %7
  %13 = getelementptr inbounds nuw i8, ptr %1, i64 24
  %14 = load ptr, ptr %13, align 8, !tbaa !105
  %15 = tail call ptr %2(ptr noundef %0, ptr noundef %14, i32 noundef 2) #24
  br label %wrap_richcmpfunc.exit

wrap_richcmpfunc.exit:                            ; preds = %5, %10, %check_num_args.exit.i
  %.0.i = phi ptr [ %15, %check_num_args.exit.i ], [ null, %10 ], [ null, %5 ]
  ret ptr %.0.i
}